target datalayout = "e-m:e-p270:32:32-p271:32:32-p272:64:64-i64:64-i128:128-f80:128-n8:16:32:64-S128"
target triple = "x86_64-pc-linux-gnu"

%"struct.cv::tracking::TrackerKCF::Params" = type { float, float, float, float, float, float, i8, i8, i8, i8, i32, i32, i32, i32 }

; Function Attrs: mustprogress nounwind uwtable
define void @_ZN2cv8tracking10TrackerKCF6ParamsC2Ev(ptr noundef nonnull align 4 dereferenceable(44) %0) unnamed_addr #7 align 2 {
  %2 = alloca ptr, align 8
  store ptr %0, ptr %2, align 8, !tbaa !8
  %3 = load ptr, ptr %2, align 8
  %4 = getelementptr inbounds nuw %"struct.cv::tracking::TrackerKCF::Params", ptr %3, i32 0, i32 0
  store float 5.000000e-01, ptr %4, align 4, !tbaa !223
  %5 = getelementptr inbounds nuw %"struct.cv::tracking::TrackerKCF::Params", ptr %3, i32 0, i32 1
  store float 0x3FC99999A0000000, ptr %5, align 4, !tbaa !224
  %6 = getelementptr inbounds nuw %"struct.cv::tracking::TrackerKCF::Params", ptr %3, i32 0, i32 2
  store float 0x3F1A36E2E0000000, ptr %6, align 4, !tbaa !225
  %7 = getelementptr inbounds nuw %"struct.cv::tracking::TrackerKCF::Params", ptr %3, i32 0, i32 3
  store float 0x3FB3333340000000, ptr %7, align 4, !tbaa !226
  %8 = getelementptr inbounds nuw %"struct.cv::tracking::TrackerKCF::Params", ptr %3, i32 0, i32 4
  store float 6.250000e-02, ptr %8, align 4, !tbaa !227
  %9 = getelementptr inbounds nuw %"struct.cv::tracking::TrackerKCF::Params", ptr %3, i32 0, i32 6
  store i8 1, ptr %9, align 4, !tbaa !228
  %10 = getelementptr inbounds nuw %"struct.cv::tracking::TrackerKCF::Params", ptr %3, i32 0, i32 10
  store i32 6400, ptr %10, align 4, !tbaa !229
  %11 = getelementptr inbounds nuw %"struct.cv::tracking::TrackerKCF::Params", ptr %3, i32 0, i32 7
  store i8 1, ptr %11, align 1, !tbaa !230
  %12 = getelementptr inbounds nuw %"struct.cv::tracking::TrackerKCF::Params", ptr %3, i32 0, i32 8
  store i8 0, ptr %12, align 2, !tbaa !231
  %13 = getelementptr inbounds nuw %"struct.cv::tracking::TrackerKCF::Params", ptr %3, i32 0, i32 13
  store i32 1, ptr %13, align 4, !tbaa !232
  %14 = getelementptr inbounds nuw %"struct.cv::tracking::TrackerKCF::Params", ptr %3, i32 0, i32 12
  store i32 2, ptr %14, align 4, !tbaa !233
  %15 = getelementptr inbounds nuw %"struct.cv::tracking::TrackerKCF::Params", ptr %3, i32 0, i32 9
  store i8 1, ptr %15, align 1, !tbaa !234
  %16 = getelementptr inbounds nuw %"struct.cv::tracking::TrackerKCF::Params", ptr %3, i32 0, i32 11
  store i32 2, ptr %16, align 4, !tbaa !235
  %17 = getelementptr inbounds nuw %"struct.cv::tracking::TrackerKCF::Params", ptr %3, i32 0, i32 5
  store float 0x3FC3333340000000, ptr %17, align 4, !tbaa !236
  ret void
}