; Function Attrs: mustprogress nofree norecurse nosync nounwind willreturn memory(argmem: write) uwtable
define void @_ZN2cv8tracking10TrackerKCF6ParamsC2Ev(ptr noundef nonnull writeonly align 4 captures(none) dereferenceable(44) initializes((0, 44)) %0) unnamed_addr #13 align 2 {
  store float 5.000000e-01, ptr %0, align 4, !tbaa !210
  %2 = getelementptr inbounds nuw i8, ptr %0, i64 4
  store float 0x3FC99999A0000000, ptr %2, align 4, !tbaa !211
  %3 = getelementptr inbounds nuw i8, ptr %0, i64 8
  store float 0x3F1A36E2E0000000, ptr %3, align 4, !tbaa !212
  %4 = getelementptr inbounds nuw i8, ptr %0, i64 12
  store float 0x3FB3333340000000, ptr %4, align 4, !tbaa !213
  %5 = getelementptr inbounds nuw i8, ptr %0, i64 16
  store float 6.250000e-02, ptr %5, align 4, !tbaa !214
  %6 = getelementptr inbounds nuw i8, ptr %0, i64 24
  store i8 1, ptr %6, align 4, !tbaa !215
  %7 = getelementptr inbounds nuw i8, ptr %0, i64 28
  store i32 6400, ptr %7, align 4, !tbaa !216
  %8 = getelementptr inbounds nuw i8, ptr %0, i64 25
  store i8 1, ptr %8, align 1, !tbaa !217
  %9 = getelementptr inbounds nuw i8, ptr %0, i64 26
  store i8 0, ptr %9, align 2, !tbaa !218
  %10 = getelementptr inbounds nuw i8, ptr %0, i64 40
  store i32 1, ptr %10, align 4, !tbaa !219
  %11 = getelementptr inbounds nuw i8, ptr %0, i64 36
  store i32 2, ptr %11, align 4, !tbaa !220
  %12 = getelementptr inbounds nuw i8, ptr %0, i64 27
  store i8 1, ptr %12, align 1, !tbaa !221
  %13 = getelementptr inbounds nuw i8, ptr %0, i64 32
  store i32 2, ptr %13, align 4, !tbaa !222
  %14 = getelementptr inbounds nuw i8, ptr %0, i64 20
  store float 0x3FC3333340000000, ptr %14, align 4, !tbaa !223
  ret void
}